; Function Attrs: mustprogress uwtable
define internal fastcc void @_ZN12_GLOBAL__N_110InfoWriter4SaveERKNSt7__cxx1112basic_stringIcSt11char_traitsIcESaIcEEE(ptr noundef nonnull align 8 dereferenceable(40) %0, ptr noundef nonnull align 8 dereferenceable(32) %1) unnamed_addr #3 align 2 personality ptr @__gxx_personality_v0 {
  %3 = alloca %class.cmGeneratedFileStream, align 8
  %4 = alloca %"class.Json::StyledStreamWriter", align 8
  %5 = alloca %"class.std::__cxx11::basic_string", align 8
  %6 = alloca %"class.std::allocator", align 1
  call void @_ZN21cmGeneratedFileStreamC1E16codecvt_Encoding(ptr noundef nonnull align 8 dereferenceable(348) %3, i32 noundef 0)
  invoke void @_ZN21cmGeneratedFileStream18SetCopyIfDifferentEb(ptr noundef nonnull align 8 dereferenceable(348) %3, i1 noundef zeroext true)
          to label %7 unwind label %16

7:                                                ; preds = %2
  %8 = invoke noundef nonnull align 8 dereferenceable(348) ptr @_ZN21cmGeneratedFileStream4OpenERKNSt7__cxx1112basic_stringIcSt11char_traitsIcESaIcEEEbb(ptr noundef nonnull align 8 dereferenceable(348) %3, ptr noundef nonnull align 8 dereferenceable(32) %1, i1 noundef zeroext false, i1 noundef zeroext true)
          to label %9 unwind label %16

9:                                                ; preds = %7
  %10 = load ptr, ptr %3, align 8
  %11 = getelementptr i8, ptr %10, i64 -24
  %12 = load i64, ptr %11, align 8
  %13 = getelementptr inbounds i8, ptr %3, i64 %12
  %14 = invoke noundef zeroext i1 @_ZNKSt9basic_iosIcSt11char_traitsIcEEntEv(ptr noundef nonnull align 8 dereferenceable(264) %13)
          to label %15 unwind label %16

15:                                               ; preds = %9
  br i1 %14, label %_ZN4Json18StyledStreamWriterD2Ev.exit, label %18

16:                                               ; preds = %9, %7, %2
  %17 = landingpad { ptr, i32 }
          cleanup
  br label %44

18:                                               ; preds = %15
  call void @_ZNSaIcEC1Ev(ptr noundef nonnull align 1 dereferenceable(1) %6) #21
  %19 = invoke noundef ptr @_ZNSt7__cxx1112basic_stringIcSt11char_traitsIcESaIcEE13_M_local_dataEv(ptr noundef nonnull align 8 dereferenceable(32) %5)
          to label %.noexc unwind label %23

.noexc:                                           ; preds = %18
  invoke void @_ZNSt7__cxx1112basic_stringIcSt11char_traitsIcESaIcEE12_Alloc_hiderC1EPcRKS3_(ptr noundef nonnull align 8 dereferenceable(8) %5, ptr noundef %19, ptr noundef nonnull align 1 dereferenceable(1) %6)
          to label %.noexc12 unwind label %23

.noexc12:                                         ; preds = %.noexc
  invoke void @_ZNSt7__cxx1112basic_stringIcSt11char_traitsIcESaIcEE12_M_constructIPKcEEvT_S8_St20forward_iterator_tag(ptr noundef nonnull align 8 dereferenceable(32) %5, ptr noundef nonnull @.str.189, ptr noundef nonnull getelementptr inbounds ([2 x i8], ptr @.str.189, i64 0, i64 1))
          to label %_ZNSt7__cxx1112basic_stringIcSt11char_traitsIcESaIcEEC2IS3_EEPKcRKS3_.exit unwind label %20

20:                                               ; preds = %.noexc12
  %21 = landingpad { ptr, i32 }
          cleanup
  call void @_ZNSaIcED2Ev(ptr noundef nonnull align 1 dereferenceable(1) %5) #21
  br label %.body

_ZNSt7__cxx1112basic_stringIcSt11char_traitsIcESaIcEEC2IS3_EEPKcRKS3_.exit: ; preds = %.noexc12
  invoke void @_ZN4Json18StyledStreamWriterC1ENSt7__cxx1112basic_stringIcSt11char_traitsIcESaIcEEE(ptr noundef nonnull align 8 dereferenceable(105) %4, ptr noundef nonnull %5)
          to label %22 unwind label %25

22:                                               ; preds = %_ZNSt7__cxx1112basic_stringIcSt11char_traitsIcESaIcEEC2IS3_EEPKcRKS3_.exit
  call void @_ZNSt7__cxx1112basic_stringIcSt11char_traitsIcESaIcEED1Ev(ptr noundef nonnull align 8 dereferenceable(32) %5) #21
  call void @_ZNSaIcED1Ev(ptr noundef nonnull align 1 dereferenceable(1) %6) #21
  invoke void @_ZN4Json18StyledStreamWriter5writeERSoRKNS_5ValueE(ptr noundef nonnull align 8 dereferenceable(105) %4, ptr noundef nonnull align 8 dereferenceable(8) %3, ptr noundef nonnull align 8 dereferenceable(40) %0)
          to label %33 unwind label %27

23:                                               ; preds = %.noexc, %18
  %24 = landingpad { ptr, i32 }
          cleanup
  br label %.body

25:                                               ; preds = %_ZNSt7__cxx1112basic_stringIcSt11char_traitsIcESaIcEEC2IS3_EEPKcRKS3_.exit
  %26 = landingpad { ptr, i32 }
          cleanup
  call void @_ZNSt7__cxx1112basic_stringIcSt11char_traitsIcESaIcEED1Ev(ptr noundef nonnull align 8 dereferenceable(32) %5) #21
  br label %.body

.body:                                            ; preds = %23, %20, %25
  %.pn = phi { ptr, i32 } [ %26, %25 ], [ %24, %23 ], [ %21, %20 ]
  call void @_ZNSaIcED1Ev(ptr noundef nonnull align 1 dereferenceable(1) %6) #21
  br label %44

27:                                               ; preds = %22
  %28 = landingpad { ptr, i32 }
          catch ptr null
  %29 = extractvalue { ptr, i32 } %28, 0
  %30 = call ptr @__cxa_begin_catch(ptr %29) #21
  invoke void @__cxa_end_catch()
          to label %35 unwind label %31

31:                                               ; preds = %33, %27
  %32 = landingpad { ptr, i32 }
          cleanup
  call void @_ZN4Json18StyledStreamWriterD2Ev(ptr noundef nonnull align 8 dereferenceable(105) %4) #21
  br label %44

33:                                               ; preds = %22
  %34 = invoke noundef zeroext i1 @_ZN21cmGeneratedFileStream5CloseEv(ptr noundef nonnull align 8 dereferenceable(348) %3)
          to label %35 unwind label %31

35:                                               ; preds = %33, %27
  %36 = getelementptr inbounds i8, ptr %4, i64 72
  call void @_ZNSt7__cxx1112basic_stringIcSt11char_traitsIcESaIcEED1Ev(ptr noundef nonnull align 8 dereferenceable(32) %36) #21
  %37 = getelementptr inbounds i8, ptr %4, i64 32
  call void @_ZNSt7__cxx1112basic_stringIcSt11char_traitsIcESaIcEED1Ev(ptr noundef nonnull align 8 dereferenceable(32) %37) #21
  %38 = load ptr, ptr %4, align 8
  %39 = getelementptr inbounds i8, ptr %4, i64 8
  %40 = load ptr, ptr %39, align 8
  %.not4.i.i.i.i.i = icmp eq ptr %38, %40
  br i1 %.not4.i.i.i.i.i, label %_ZSt8_DestroyIPNSt7__cxx1112basic_stringIcSt11char_traitsIcESaIcEEES5_EvT_S7_RSaIT0_E.exit.i.i, label %.lr.ph.i.i.i.i.i

.lr.ph.i.i.i.i.i:                                 ; preds = %35, %.lr.ph.i.i.i.i.i
  %.05.i.i.i.i.i = phi ptr [ %41, %.lr.ph.i.i.i.i.i ], [ %38, %35 ]
  call void @_ZNSt7__cxx1112basic_stringIcSt11char_traitsIcESaIcEED1Ev(ptr noundef nonnull align 8 dereferenceable(32) %.05.i.i.i.i.i) #21
  %41 = getelementptr inbounds i8, ptr %.05.i.i.i.i.i, i64 32
  %.not.i.i.i.i.i = icmp eq ptr %41, %40
  br i1 %.not.i.i.i.i.i, label %_ZSt8_DestroyIPNSt7__cxx1112basic_stringIcSt11char_traitsIcESaIcEEES5_EvT_S7_RSaIT0_E.exitthread-pre-split.i.i, label %.lr.ph.i.i.i.i.i, !llvm.loop !7

_ZSt8_DestroyIPNSt7__cxx1112basic_stringIcSt11char_traitsIcESaIcEEES5_EvT_S7_RSaIT0_E.exitthread-pre-split.i.i: ; preds = %.lr.ph.i.i.i.i.i
  %.pr.i.i = load ptr, ptr %4, align 8
  br label %_ZSt8_DestroyIPNSt7__cxx1112basic_stringIcSt11char_traitsIcESaIcEEES5_EvT_S7_RSaIT0_E.exit.i.i

_ZSt8_DestroyIPNSt7__cxx1112basic_stringIcSt11char_traitsIcESaIcEEES5_EvT_S7_RSaIT0_E.exit.i.i: ; preds = %_ZSt8_DestroyIPNSt7__cxx1112basic_stringIcSt11char_traitsIcESaIcEEES5_EvT_S7_RSaIT0_E.exitthread-pre-split.i.i, %35
  %42 = phi ptr [ %.pr.i.i, %_ZSt8_DestroyIPNSt7__cxx1112basic_stringIcSt11char_traitsIcESaIcEEES5_EvT_S7_RSaIT0_E.exitthread-pre-split.i.i ], [ %38, %35 ]
  %.not.i.i.i.i = icmp eq ptr %42, null
  br i1 %.not.i.i.i.i, label %_ZN4Json18StyledStreamWriterD2Ev.exit, label %43

43:                                               ; preds = %_ZSt8_DestroyIPNSt7__cxx1112basic_stringIcSt11char_traitsIcESaIcEEES5_EvT_S7_RSaIT0_E.exit.i.i
  call void @_ZdlPv(ptr noundef nonnull %42) #23
  br label %_ZN4Json18StyledStreamWriterD2Ev.exit

_ZN4Json18StyledStreamWriterD2Ev.exit:            ; preds = %43, %_ZSt8_DestroyIPNSt7__cxx1112basic_stringIcSt11char_traitsIcESaIcEEES5_EvT_S7_RSaIT0_E.exit.i.i, %15
  call void @_ZN21cmGeneratedFileStreamD1Ev(ptr noundef nonnull align 8 dereferenceable(348) %3) #21
  ret void

44:                                               ; preds = %31, %.body, %16
  %.pn10 = phi { ptr, i32 } [ %32, %31 ], [ %.pn, %.body ], [ %17, %16 ]
  call void @_ZN21cmGeneratedFileStreamD1Ev(ptr noundef nonnull align 8 dereferenceable(348) %3) #21
  resume { ptr, i32 } %.pn10
}